target datalayout = "e-m:e-p270:32:32-p271:32:32-p272:64:64-i64:64-i128:128-f80:128-n8:16:32:64-S128"
target triple = "x86_64-pc-linux-gnu"

%"class.clang::DeclarationName" = type { i64 }
%"class.clang::LookupResult" = type { i32, i32, %"class.clang::UnresolvedSet", ptr, ptr, %"class.clang::QualType", ptr, %"struct.clang::DeclarationNameInfo", %"class.clang::SourceRange", i32, i32, i8, i8, i8, i8, i8, i8, i8, i8 }
%"class.clang::UnresolvedSet" = type { %"class.llvm::SmallVector" }
%"class.llvm::SmallVector" = type { %"class.llvm::SmallVectorImpl", %"struct.llvm::SmallVectorStorage" }
%"class.llvm::SmallVectorImpl" = type { %"class.llvm::SmallVectorTemplateBase" }
%"class.llvm::SmallVectorTemplateBase" = type { %"class.llvm::SmallVectorTemplateCommon" }
%"class.llvm::SmallVectorTemplateCommon" = type { %"class.llvm::SmallVectorBase" }
%"class.llvm::SmallVectorBase" = type { ptr, i32, i32 }
%"struct.llvm::SmallVectorStorage" = type { [64 x i8] }
%"class.clang::QualType" = type { %"class.llvm::PointerIntPair" }
%"class.llvm::PointerIntPair" = type { %"struct.llvm::detail::PunnedPointer" }
%"struct.llvm::detail::PunnedPointer" = type { [8 x i8] }
%"struct.clang::DeclarationNameInfo" = type { %"class.clang::DeclarationName", %"class.clang::SourceLocation", %"class.clang::DeclarationNameLoc" }
%"class.clang::SourceLocation" = type { i32 }
%"class.clang::DeclarationNameLoc" = type { %union.anon }
%union.anon = type { %"struct.clang::DeclarationNameLoc::NT" }
%"struct.clang::DeclarationNameLoc::NT" = type { ptr }
%"class.clang::SourceRange" = type { %"class.clang::SourceLocation", %"class.clang::SourceLocation" }

; Function Attrs: mustprogress nounwind uwtable
define linkonce_odr hidden noundef ptr @_ZNK4llvm25SmallVectorTemplateCommonIN5clang14DeclAccessPairEvE10getFirstElEv(ptr noundef nonnull align 8 dereferenceable(16) %0) #0 comdat align 2 {
  %2 = alloca ptr, align 8
  store ptr %0, ptr %2, align 8
  %3 = load ptr, ptr %2, align 8
  %4 = getelementptr inbounds i8, ptr %3, i64 16
  ret ptr %4
}

; Function Attrs: mustprogress nounwind uwtable
define linkonce_odr hidden void @_ZN4llvm25SmallVectorTemplateCommonIN5clang14DeclAccessPairEvEC2Em(ptr noundef nonnull align 8 dereferenceable(16) %0, i64 noundef %1) unnamed_addr #0 comdat align 2 {
  %3 = alloca ptr, align 8
  %4 = alloca i64, align 8
  store ptr %0, ptr %3, align 8
  store i64 %1, ptr %4, align 8
  %5 = load ptr, ptr %3, align 8
  %6 = call noundef ptr @_ZNK4llvm25SmallVectorTemplateCommonIN5clang14DeclAccessPairEvE10getFirstElEv(ptr noundef nonnull align 8 dereferenceable(16) %5)
  %7 = load i64, ptr %4, align 8
  call void @_ZN4llvm15SmallVectorBaseIjEC2EPvm(ptr noundef nonnull align 8 dereferenceable(16) %5, ptr noundef %6, i64 noundef %7)
  ret void
}

; Function Attrs: mustprogress nounwind uwtable
define linkonce_odr hidden noundef nonnull align 8 dereferenceable(8) ptr @_ZN4llvm6detail13PunnedPointerINS_12PointerUnionIJPKN5clang4TypeEPKNS3_8ExtQualsEEEEEaSEl(ptr noundef nonnull align 8 dereferenceable(8) %0, i64 noundef %1) #0 comdat align 2 {
  %3 = alloca ptr, align 8
  %4 = alloca i64, align 8
  store ptr %0, ptr %3, align 8
  store i64 %1, ptr %4, align 8
  %5 = load ptr, ptr %3, align 8
  %6 = getelementptr inbounds nuw %"struct.llvm::detail::PunnedPointer", ptr %5, i32 0, i32 0
  %7 = getelementptr inbounds [8 x i8], ptr %6, i64 0, i64 0
  call void @llvm.memcpy.p0.p0.i64(ptr align 8 %7, ptr align 8 %4, i64 8, i1 false)
  ret ptr %5
}

; Function Attrs: mustprogress nounwind uwtable
define linkonce_odr hidden void @_ZN4llvm23SmallVectorTemplateBaseIN5clang14DeclAccessPairELb1EEC2Em(ptr noundef nonnull align 8 dereferenceable(16) %0, i64 noundef %1) unnamed_addr #0 comdat align 2 {
  %3 = alloca ptr, align 8
  %4 = alloca i64, align 8
  store ptr %0, ptr %3, align 8
  store i64 %1, ptr %4, align 8
  %5 = load ptr, ptr %3, align 8
  %6 = load i64, ptr %4, align 8
  call void @_ZN4llvm25SmallVectorTemplateCommonIN5clang14DeclAccessPairEvEC2Em(ptr noundef nonnull align 8 dereferenceable(16) %5, i64 noundef %6)
  ret void
}

; Function Attrs: mustprogress nounwind uwtable
define linkonce_odr hidden void @_ZN4llvm6detail13PunnedPointerINS_12PointerUnionIJPKN5clang4TypeEPKNS3_8ExtQualsEEEEEC2El(ptr noundef nonnull align 8 dereferenceable(8) %0, i64 noundef %1) unnamed_addr #0 comdat align 2 {
  %3 = alloca ptr, align 8
  %4 = alloca i64, align 8
  store ptr %0, ptr %3, align 8
  store i64 %1, ptr %4, align 8
  %5 = load ptr, ptr %3, align 8
  %6 = load i64, ptr %4, align 8
  %7 = call noundef nonnull align 8 dereferenceable(8) ptr @_ZN4llvm6detail13PunnedPointerINS_12PointerUnionIJPKN5clang4TypeEPKNS3_8ExtQualsEEEEEaSEl(ptr noundef nonnull align 8 dereferenceable(8) %5, i64 noundef %6)
  ret void
}

; Function Attrs: mustprogress nounwind uwtable
define linkonce_odr hidden void @_ZN4llvm15SmallVectorImplIN5clang14DeclAccessPairEEC2Ej(ptr noundef nonnull align 8 dereferenceable(16) %0, i32 noundef %1) unnamed_addr #0 comdat align 2 {
  %3 = alloca ptr, align 8
  %4 = alloca i32, align 4
  store ptr %0, ptr %3, align 8
  store i32 %1, ptr %4, align 4
  %5 = load ptr, ptr %3, align 8
  %6 = load i32, ptr %4, align 4
  %7 = zext i32 %6 to i64
  call void @_ZN4llvm23SmallVectorTemplateBaseIN5clang14DeclAccessPairELb1EEC2Em(ptr noundef nonnull align 8 dereferenceable(16) %5, i64 noundef %7)
  ret void
}

; Function Attrs: mustprogress nounwind uwtable
define linkonce_odr hidden void @_ZN5clang14SourceLocationC2Ev(ptr noundef nonnull align 4 dereferenceable(4) %0) unnamed_addr #0 comdat align 2 {
  %2 = alloca ptr, align 8
  store ptr %0, ptr %2, align 8
  %3 = load ptr, ptr %2, align 8
  %4 = getelementptr inbounds nuw %"class.clang::SourceLocation", ptr %3, i32 0, i32 0
  store i32 0, ptr %4, align 4
  ret void
}

; Function Attrs: mustprogress nounwind uwtable
define linkonce_odr hidden void @_ZN4llvm14PointerIntPairINS_12PointerUnionIJPKN5clang4TypeEPKNS2_8ExtQualsEEEELj3EjNS_21PointerLikeTypeTraitsIS9_EENS_18PointerIntPairInfoIS9_Lj3ESB_EEEC2Ev(ptr noundef nonnull align 8 dereferenceable(8) %0) unnamed_addr #0 comdat align 2 {
  %2 = alloca ptr, align 8
  store ptr %0, ptr %2, align 8
  %3 = load ptr, ptr %2, align 8
  %4 = getelementptr inbounds nuw %"class.llvm::PointerIntPair", ptr %3, i32 0, i32 0
  call void @_ZN4llvm6detail13PunnedPointerINS_12PointerUnionIJPKN5clang4TypeEPKNS3_8ExtQualsEEEEEC2El(ptr noundef nonnull align 8 dereferenceable(8) %4, i64 noundef 0)
  ret void
}

; Function Attrs: mustprogress nounwind uwtable
define linkonce_odr hidden void @_ZN4llvm11SmallVectorIN5clang14DeclAccessPairELj8EEC2Ev(ptr noundef nonnull align 8 dereferenceable(80) %0) unnamed_addr #0 comdat align 2 {
  %2 = alloca ptr, align 8
  store ptr %0, ptr %2, align 8
  %3 = load ptr, ptr %2, align 8
  call void @_ZN4llvm15SmallVectorImplIN5clang14DeclAccessPairEEC2Ej(ptr noundef nonnull align 8 dereferenceable(16) %3, i32 noundef 8)
  ret void
}

; Function Attrs: mustprogress nounwind uwtable
define linkonce_odr hidden void @_ZN5clang11SourceRangeC2Ev(ptr noundef nonnull align 4 dereferenceable(8) %0) unnamed_addr #0 comdat align 2 {
  %2 = alloca ptr, align 8
  store ptr %0, ptr %2, align 8
  %3 = load ptr, ptr %2, align 8
  %4 = getelementptr inbounds nuw %"class.clang::SourceRange", ptr %3, i32 0, i32 0
  call void @_ZN5clang14SourceLocationC2Ev(ptr noundef nonnull align 4 dereferenceable(4) %4) #14
  %5 = getelementptr inbounds nuw %"class.clang::SourceRange", ptr %3, i32 0, i32 1
  call void @_ZN5clang14SourceLocationC2Ev(ptr noundef nonnull align 4 dereferenceable(4) %5) #14
  ret void
}

; Function Attrs: mustprogress nounwind uwtable
define linkonce_odr hidden void @_ZN5clang8QualTypeC2Ev(ptr noundef nonnull align 8 dereferenceable(8) %0) unnamed_addr #0 comdat align 2 {
  %2 = alloca ptr, align 8
  store ptr %0, ptr %2, align 8
  %3 = load ptr, ptr %2, align 8
  %4 = getelementptr inbounds nuw %"class.clang::QualType", ptr %3, i32 0, i32 0
  call void @_ZN4llvm14PointerIntPairINS_12PointerUnionIJPKN5clang4TypeEPKNS2_8ExtQualsEEEELj3EjNS_21PointerLikeTypeTraitsIS9_EENS_18PointerIntPairInfoIS9_Lj3ESB_EEEC2Ev(ptr noundef nonnull align 8 dereferenceable(8) %4)
  ret void
}

; Function Attrs: mustprogress nounwind uwtable
define linkonce_odr hidden void @_ZN5clang13UnresolvedSetILj8EEC2Ev(ptr noundef nonnull align 8 dereferenceable(80) %0) unnamed_addr #0 comdat align 2 {
  %2 = alloca ptr, align 8
  store ptr %0, ptr %2, align 8
  %3 = load ptr, ptr %2, align 8
  %4 = getelementptr inbounds nuw %"class.clang::UnresolvedSet", ptr %3, i32 0, i32 0
  call void @_ZN4llvm11SmallVectorIN5clang14DeclAccessPairELj8EEC2Ev(ptr noundef nonnull align 8 dereferenceable(80) %4)
  ret void
}

; Function Attrs: mustprogress nounwind uwtable
define linkonce_odr hidden void @_ZN5clang15DeclarationName13setPtrAndKindEPKvNS0_14StoredNameKindE(ptr noundef nonnull align 8 dereferenceable(8) %0, ptr noundef %1, i32 noundef %2) #0 comdat align 2 {
  %4 = alloca ptr, align 8
  %5 = alloca ptr, align 8
  %6 = alloca i32, align 4
  %7 = alloca i64, align 8
  store ptr %0, ptr %4, align 8
  store ptr %1, ptr %5, align 8
  store i32 %2, ptr %6, align 4
  %8 = load ptr, ptr %4, align 8
  %9 = load ptr, ptr %5, align 8
  %10 = ptrtoint ptr %9 to i64
  store i64 %10, ptr %7, align 8
  %11 = load i64, ptr %7, align 8
  %12 = load i32, ptr %6, align 4
  %13 = zext i32 %12 to i64
  %14 = or i64 %11, %13
  %15 = getelementptr inbounds nuw %"class.clang::DeclarationName", ptr %8, i32 0, i32 0
  store i64 %14, ptr %15, align 8
  ret void
}

; Function Attrs: mustprogress nounwind uwtable
define linkonce_odr hidden void @_ZN5clang12LookupResult11setHideTagsEb(ptr noundef nonnull align 8 dereferenceable(168) %0, i1 noundef zeroext %1) #0 comdat align 2 {
  %3 = alloca ptr, align 8
  %4 = alloca i8, align 1
  store ptr %0, ptr %3, align 8
  %5 = zext i1 %1 to i8
  store i8 %5, ptr %4, align 1
  %6 = load ptr, ptr %3, align 8
  %7 = load i8, ptr %4, align 1
  %8 = trunc i8 %7 to i1
  %9 = getelementptr inbounds nuw %"class.clang::LookupResult", ptr %6, i32 0, i32 13
  %10 = zext i1 %8 to i8
  store i8 %10, ptr %9, align 2
  ret void
}

; Function Attrs: mustprogress nounwind uwtable
define linkonce_odr hidden void @_ZN5clang12LookupResult19suppressDiagnosticsEv(ptr noundef nonnull align 8 dereferenceable(168) %0) #0 comdat align 2 {
  %2 = alloca ptr, align 8
  store ptr %0, ptr %2, align 8
  %3 = load ptr, ptr %2, align 8
  %4 = getelementptr inbounds nuw %"class.clang::LookupResult", ptr %3, i32 0, i32 14
  store i8 0, ptr %4, align 1
  %5 = getelementptr inbounds nuw %"class.clang::LookupResult", ptr %3, i32 0, i32 15
  store i8 0, ptr %5, align 4
  ret void
}

; Function Attrs: mustprogress nounwind uwtable
define linkonce_odr hidden void @_ZN5clang12LookupResultC2ERNS_4SemaERKNS_19DeclarationNameInfoENS1_14LookupNameKindE17RedeclarationKind(ptr noundef nonnull align 8 dereferenceable(168) %0, ptr noundef nonnull align 8 dereferenceable(17560) %1, ptr noundef nonnull align 8 dereferenceable(24) %2, i32 noundef %3, i32 noundef %4) unnamed_addr #0 comdat align 2 {
  %6 = alloca ptr, align 8
  %7 = alloca ptr, align 8
  %8 = alloca ptr, align 8
  %9 = alloca i32, align 4
  %10 = alloca i32, align 4
  store ptr %0, ptr %6, align 8
  store ptr %1, ptr %7, align 8
  store ptr %2, ptr %8, align 8
  store i32 %3, ptr %9, align 4
  store i32 %4, ptr %10, align 4
  %11 = load ptr, ptr %6, align 8
  %12 = getelementptr inbounds nuw %"class.clang::LookupResult", ptr %11, i32 0, i32 0
  store i32 0, ptr %12, align 8
  %13 = getelementptr inbounds nuw %"class.clang::LookupResult", ptr %11, i32 0, i32 1
  store i32 0, ptr %13, align 4
  %14 = getelementptr inbounds nuw %"class.clang::LookupResult", ptr %11, i32 0, i32 2
  call void @_ZN5clang13UnresolvedSetILj8EEC2Ev(ptr noundef nonnull align 8 dereferenceable(80) %14)
  %15 = getelementptr inbounds nuw %"class.clang::LookupResult", ptr %11, i32 0, i32 3
  store ptr null, ptr %15, align 8
  %16 = getelementptr inbounds nuw %"class.clang::LookupResult", ptr %11, i32 0, i32 4
  store ptr null, ptr %16, align 8
  %17 = getelementptr inbounds nuw %"class.clang::LookupResult", ptr %11, i32 0, i32 5
  call void @_ZN5clang8QualTypeC2Ev(ptr noundef nonnull align 8 dereferenceable(8) %17)
  %18 = getelementptr inbounds nuw %"class.clang::LookupResult", ptr %11, i32 0, i32 6
  %19 = load ptr, ptr %7, align 8
  store ptr %19, ptr %18, align 8
  %20 = getelementptr inbounds nuw %"class.clang::LookupResult", ptr %11, i32 0, i32 7
  %21 = load ptr, ptr %8, align 8
  call void @llvm.memcpy.p0.p0.i64(ptr align 8 %20, ptr align 8 %21, i64 24, i1 false)
  %22 = getelementptr inbounds nuw %"class.clang::LookupResult", ptr %11, i32 0, i32 8
  call void @_ZN5clang11SourceRangeC2Ev(ptr noundef nonnull align 4 dereferenceable(8) %22) #14
  %23 = getelementptr inbounds nuw %"class.clang::LookupResult", ptr %11, i32 0, i32 9
  %24 = load i32, ptr %9, align 4
  store i32 %24, ptr %23, align 8
  %25 = getelementptr inbounds nuw %"class.clang::LookupResult", ptr %11, i32 0, i32 10
  store i32 0, ptr %25, align 4
  %26 = getelementptr inbounds nuw %"class.clang::LookupResult", ptr %11, i32 0, i32 11
  %27 = load i32, ptr %10, align 4
  %28 = icmp ne i32 %27, 0
  %29 = zext i1 %28 to i8
  store i8 %29, ptr %26, align 8
  %30 = getelementptr inbounds nuw %"class.clang::LookupResult", ptr %11, i32 0, i32 12
  %31 = load i32, ptr %10, align 4
  %32 = icmp eq i32 %31, 2
  %33 = zext i1 %32 to i8
  store i8 %33, ptr %30, align 1
  %34 = getelementptr inbounds nuw %"class.clang::LookupResult", ptr %11, i32 0, i32 13
  store i8 1, ptr %34, align 2
  %35 = getelementptr inbounds nuw %"class.clang::LookupResult", ptr %11, i32 0, i32 14
  %36 = load i32, ptr %10, align 4
  %37 = icmp eq i32 %36, 0
  %38 = zext i1 %37 to i8
  store i8 %38, ptr %35, align 1
  %39 = getelementptr inbounds nuw %"class.clang::LookupResult", ptr %11, i32 0, i32 15
  %40 = load i32, ptr %10, align 4
  %41 = icmp eq i32 %40, 0
  %42 = zext i1 %41 to i8
  store i8 %42, ptr %39, align 4
  %43 = getelementptr inbounds nuw %"class.clang::LookupResult", ptr %11, i32 0, i32 16
  store i8 0, ptr %43, align 1
  %44 = getelementptr inbounds nuw %"class.clang::LookupResult", ptr %11, i32 0, i32 17
  store i8 0, ptr %44, align 2
  %45 = getelementptr inbounds nuw %"class.clang::LookupResult", ptr %11, i32 0, i32 18
  store i8 0, ptr %45, align 1
  call void @_ZN5clang12LookupResult9configureEv(ptr noundef nonnull align 8 dereferenceable(168) %11)
  ret void
}

; Function Attrs: mustprogress nounwind uwtable
define linkonce_odr hidden void @_ZN5clang19DeclarationNameInfoC2ENS_15DeclarationNameENS_14SourceLocationE(ptr noundef nonnull align 8 dereferenceable(24) %0, i64 %1, i32 %2) unnamed_addr #0 comdat align 2 {
  %4 = alloca %"class.clang::DeclarationName", align 8
  %5 = alloca %"class.clang::SourceLocation", align 4
  %6 = alloca ptr, align 8
  %7 = alloca %"class.clang::DeclarationName", align 8
  %8 = getelementptr inbounds nuw %"class.clang::DeclarationName", ptr %4, i32 0, i32 0
  store i64 %1, ptr %8, align 8
  %9 = getelementptr inbounds nuw %"class.clang::SourceLocation", ptr %5, i32 0, i32 0
  store i32 %2, ptr %9, align 4
  store ptr %0, ptr %6, align 8
  %10 = load ptr, ptr %6, align 8
  %11 = getelementptr inbounds nuw %"struct.clang::DeclarationNameInfo", ptr %10, i32 0, i32 0
  call void @llvm.memcpy.p0.p0.i64(ptr align 8 %11, ptr align 8 %4, i64 8, i1 false)
  %12 = getelementptr inbounds nuw %"struct.clang::DeclarationNameInfo", ptr %10, i32 0, i32 1
  call void @llvm.memcpy.p0.p0.i64(ptr align 8 %12, ptr align 4 %5, i64 4, i1 false)
  %13 = getelementptr inbounds nuw %"struct.clang::DeclarationNameInfo", ptr %10, i32 0, i32 2
  call void @llvm.memcpy.p0.p0.i64(ptr align 8 %7, ptr align 8 %4, i64 8, i1 false)
  %14 = getelementptr inbounds nuw %"class.clang::DeclarationName", ptr %7, i32 0, i32 0
  %15 = load i64, ptr %14, align 8
  call void @_ZN5clang18DeclarationNameLocC1ENS_15DeclarationNameE(ptr noundef nonnull align 8 dereferenceable(8) %13, i64 %15)
  ret void
}

; Function Attrs: mustprogress nounwind uwtable
define linkonce_odr hidden void @_ZN5clang15DeclarationNameC2EPKNS_14IdentifierInfoE(ptr noundef nonnull align 8 dereferenceable(8) %0, ptr noundef %1) unnamed_addr #0 comdat align 2 {
  %3 = alloca ptr, align 8
  %4 = alloca ptr, align 8
  store ptr %0, ptr %3, align 8
  store ptr %1, ptr %4, align 8
  %5 = load ptr, ptr %3, align 8
  %6 = getelementptr inbounds nuw %"class.clang::DeclarationName", ptr %5, i32 0, i32 0
  store i64 0, ptr %6, align 8
  %7 = load ptr, ptr %4, align 8
  call void @_ZN5clang15DeclarationName13setPtrAndKindEPKvNS0_14StoredNameKindE(ptr noundef nonnull align 8 dereferenceable(8) %5, ptr noundef %7, i32 noundef 0)
  ret void
}

; Function Attrs: mustprogress nounwind uwtable
define dso_local void @_ZN5clang4Sema15ActOnPragmaDumpEPNS_5ScopeENS_14SourceLocationEPNS_14IdentifierInfoE(ptr noundef nonnull align 8 dereferenceable(17560) %0, ptr noundef %1, i32 %2, ptr noundef %3) #0 align 2 {
  %5 = alloca %"class.clang::SourceLocation", align 4
  %6 = alloca ptr, align 8
  %7 = alloca ptr, align 8
  %8 = alloca ptr, align 8
  %9 = alloca %"struct.clang::DeclarationNameInfo", align 8
  %10 = alloca %"class.clang::DeclarationName", align 8
  %11 = alloca %"class.clang::SourceLocation", align 4
  %12 = alloca %"class.clang::LookupResult", align 8
  %13 = getelementptr inbounds nuw %"class.clang::SourceLocation", ptr %5, i32 0, i32 0
  store i32 %2, ptr %13, align 4
  store ptr %0, ptr %6, align 8
  store ptr %1, ptr %7, align 8
  store ptr %3, ptr %8, align 8
  %14 = load ptr, ptr %6, align 8
  %15 = load ptr, ptr %8, align 8
  call void @_ZN5clang15DeclarationNameC2EPKNS_14IdentifierInfoE(ptr noundef nonnull align 8 dereferenceable(8) %10, ptr noundef %15)
  call void @llvm.memcpy.p0.p0.i64(ptr align 4 %11, ptr align 4 %5, i64 4, i1 false)
  %16 = getelementptr inbounds nuw %"class.clang::DeclarationName", ptr %10, i32 0, i32 0
  %17 = load i64, ptr %16, align 8
  %18 = getelementptr inbounds nuw %"class.clang::SourceLocation", ptr %11, i32 0, i32 0
  %19 = load i32, ptr %18, align 4
  call void @_ZN5clang19DeclarationNameInfoC2ENS_15DeclarationNameENS_14SourceLocationE(ptr noundef nonnull align 8 dereferenceable(24) %9, i64 %17, i32 %19)
  call void @_ZN5clang12LookupResultC2ERNS_4SemaERKNS_19DeclarationNameInfoENS1_14LookupNameKindE17RedeclarationKind(ptr noundef nonnull align 8 dereferenceable(168) %12, ptr noundef nonnull align 8 dereferenceable(17560) %14, ptr noundef nonnull align 8 dereferenceable(24) %9, i32 noundef 15, i32 noundef 0)
  call void @_ZN5clang12LookupResult19suppressDiagnosticsEv(ptr noundef nonnull align 8 dereferenceable(168) %12)
  call void @_ZN5clang12LookupResult11setHideTagsEb(ptr noundef nonnull align 8 dereferenceable(168) %12, i1 noundef zeroext false)
  %20 = load ptr, ptr %7, align 8
  %21 = call noundef zeroext i1 @_ZN5clang4Sema10LookupNameERNS_12LookupResultEPNS_5ScopeEbb(ptr noundef nonnull align 8 dereferenceable(17560) %14, ptr noundef nonnull align 8 dereferenceable(168) %12, ptr noundef %20, i1 noundef zeroext false, i1 noundef zeroext false)
  call void @_ZN5clang12LookupResult4dumpEv(ptr noundef nonnull align 8 dereferenceable(168) %12)
  call void @_ZN5clang12LookupResultD2Ev(ptr noundef nonnull align 8 dereferenceable(168) %12) #14
  ret void
}