; Function Attrs: mustprogress nounwind uwtable
define dso_local void @_ZN5clang4Sema15ActOnPragmaDumpEPNS_5ScopeENS_14SourceLocationEPNS_14IdentifierInfoE(ptr noundef nonnull align 8 dereferenceable(17560) %0, ptr noundef %1, i32 %2, ptr noundef %3) local_unnamed_addr #0 align 2 {
  %5 = alloca %"struct.clang::DeclarationNameInfo", align 8
  %6 = alloca %"class.clang::LookupResult", align 8
  %7 = ptrtoint ptr %3 to i64
  store i64 %7, ptr %5, align 8
  %8 = getelementptr inbounds nuw i8, ptr %5, i64 8
  store i32 %2, ptr %8, align 8
  %9 = getelementptr inbounds nuw i8, ptr %5, i64 16
  call void @_ZN5clang18DeclarationNameLocC1ENS_15DeclarationNameE(ptr noundef nonnull align 8 dereferenceable(8) %9, i64 %7) #24
  store i32 0, ptr %6, align 8
  %10 = getelementptr inbounds nuw i8, ptr %6, i64 4
  store i32 0, ptr %10, align 4
  %11 = getelementptr inbounds nuw i8, ptr %6, i64 8
  %12 = getelementptr inbounds nuw i8, ptr %6, i64 24
  call void @_ZN4llvm15SmallVectorBaseIjEC2EPvm(ptr noundef nonnull align 8 dereferenceable(80) %11, ptr noundef nonnull %12, i64 noundef 8) #24
  %13 = getelementptr inbounds nuw i8, ptr %6, i64 88
  %14 = getelementptr inbounds nuw i8, ptr %6, i64 112
  call void @llvm.memset.p0.i64(ptr noundef nonnull align 8 dereferenceable(24) %13, i8 0, i64 24, i1 false)
  store ptr %0, ptr %14, align 8
  %15 = getelementptr inbounds nuw i8, ptr %6, i64 120
  call void @llvm.memcpy.p0.p0.i64(ptr noundef nonnull align 8 dereferenceable(24) %15, ptr noundef nonnull align 8 dereferenceable(24) %5, i64 24, i1 false)
  %16 = getelementptr inbounds nuw i8, ptr %6, i64 144
  store i32 0, ptr %16, align 8
  %17 = getelementptr inbounds nuw i8, ptr %6, i64 148
  store i32 0, ptr %17, align 4
  %18 = getelementptr inbounds nuw i8, ptr %6, i64 152
  store i32 15, ptr %18, align 8
  %19 = getelementptr inbounds nuw i8, ptr %6, i64 156
  store i32 0, ptr %19, align 4
  %20 = getelementptr inbounds nuw i8, ptr %6, i64 160
  store i8 0, ptr %20, align 8
  %21 = getelementptr inbounds nuw i8, ptr %6, i64 161
  store i8 0, ptr %21, align 1
  %22 = getelementptr inbounds nuw i8, ptr %6, i64 162
  store i8 1, ptr %22, align 2
  %23 = getelementptr inbounds nuw i8, ptr %6, i64 163
  store i8 1, ptr %23, align 1
  %24 = getelementptr inbounds nuw i8, ptr %6, i64 164
  store i8 1, ptr %24, align 4
  %25 = getelementptr inbounds nuw i8, ptr %6, i64 165
  store i8 0, ptr %25, align 1
  %26 = getelementptr inbounds nuw i8, ptr %6, i64 166
  store i8 0, ptr %26, align 2
  %27 = getelementptr inbounds nuw i8, ptr %6, i64 167
  store i8 0, ptr %27, align 1
  call void @_ZN5clang12LookupResult9configureEv(ptr noundef nonnull align 8 dereferenceable(168) %6)
  store i8 0, ptr %23, align 1
  store i8 0, ptr %24, align 4
  store i8 0, ptr %22, align 2
  %28 = call noundef zeroext i1 @_ZN5clang4Sema10LookupNameERNS_12LookupResultEPNS_5ScopeEbb(ptr noundef nonnull align 8 dereferenceable(17560) %0, ptr noundef nonnull align 8 dereferenceable(168) %6, ptr noundef %1, i1 noundef zeroext false, i1 noundef zeroext false)
  call void @_ZN5clang12LookupResult4dumpEv(ptr noundef nonnull align 8 dereferenceable(168) %6)
  call void @_ZN5clang12LookupResultD2Ev(ptr noundef nonnull align 8 dereferenceable(168) %6) #24
  ret void
}